; Function Attrs: nounwind uwtable
define internal range(i32 -12, 1) i32 @vp9_superframe_split_init(ptr noundef readonly captures(none) %0) #0 {
  %2 = getelementptr inbounds nuw i8, ptr %0, i64 16
  %3 = load ptr, ptr %2, align 8, !tbaa !4
  %4 = tail call ptr @av_packet_alloc() #2
  store ptr %4, ptr %3, align 8, !tbaa !14
  %.not = icmp eq ptr %4, null
  %. = select i1 %.not, i32 -12, i32 0
  ret i32 %.
}